Microsoft (R) Macro Assembler Version 14.28.29335.0	    10/06/22 22:33:01
assignment4_b.asm					     Page 1 - 1


				.586
				.MODEL FLAT

				INCLUDE io.h
			      C ; IO.H -- header file for I/O macros (listing suppressed)
			      C .NOLIST      ; turn off listing
			      C .LIST        ; begin listing
			      C 

				.STACK 4096

 00000000			.DATA
 00000000 45 6E 74 65 72	prompt_a BYTE "Enter Rent Cost Per Month in USD", 0
	   20 52 65 6E 74
	   20 43 6F 73 74
	   20 50 65 72 20
	   4D 6F 6E 74 68
	   20 69 6E 20 55
	   53 44 00
 00000021 45 6E 74 65 72	prompt_b BYTE "Enter Utilities Cost Per Month in USD", 0
	   20 55 74 69 6C
	   69 74 69 65 73
	   20 43 6F 73 74
	   20 50 65 72 20
	   4D 6F 6E 74 68
	   20 69 6E 20 55
	   53 44 00
 00000047 45 6E 74 65 72	prompt_c BYTE "Enter Phone Cost Per Month in USD", 0
	   20 50 68 6F 6E
	   65 20 43 6F 73
	   74 20 50 65 72
	   20 4D 6F 6E 74
	   68 20 69 6E 20
	   55 53 44 00
 00000069 45 6E 74 65 72	prompt_d BYTE "Enter Cable Cost Per Month in USD", 0
	   20 43 61 62 6C
	   65 20 43 6F 73
	   74 20 50 65 72
	   20 4D 6F 6E 74
	   68 20 69 6E 20
	   55 53 44 00

 0000008B 00000000		Rent        DWORD ?
 0000008F 00000000		Utilities   DWORD ?
 00000093 00000000		Phone       DWORD ?
 00000097 00000000		Cable       DWORD ?
 0000009B 0000000C		months_ina_year DWORD 12

 0000009F  00000028 [		string BYTE 40 DUP(?)
	    00
	   ]
 000000C7 54 6F 74 61 6C	result_str_a BYTE "Total Monthly Payment in USD: ", 0
	   20 4D 6F 6E 74
	   68 6C 79 20 50
	   61 79 6D 65 6E
	   74 20 69 6E 20
	   55 53 44 3A 20
	   00
 000000E6 54 6F 74 61 6C	result_str_b BYTE "Total Yearly Payment in USD: ", 0
	   20 59 65 61 72
	   6C 79 20 50 61
	   79 6D 65 6E 74
	   20 69 6E 20 55
	   53 44 3A 20 00
 00000104  0000000B [		tempTTLpayment BYTE 11 DUP (?)
	    00
	   ]

 00000000			.CODE
 00000000			_MainProc PROC
				        input prompt_a, string, 40
				        atod string 
 0000002D  A3 0000008B R	        mov Rent, eax

				        input prompt_b, string, 40
				        atod string 
 0000005F  A3 0000008F R	        mov Utilities, eax

				        input prompt_c, string, 40
				        atod string 
 00000091  A3 00000093 R	        mov Phone, eax

				        input prompt_d, string, 40
				        atod string 
 000000C3  A3 00000097 R	        mov Cable, eax

 000000C8  A1 0000008B R	        mov eax, Rent
 000000CD  03 05 0000008F R	        add eax, Utilities
 000000D3  03 05 00000093 R	        add eax, Phone
 000000D9  03 05 00000097 R	        add eax, Cable

				        dtoa tempTTLpayment, eax
				        output result_str_a, tempTTLpayment

 00000110  F7 25 0000009B R	        mul months_ina_year
				        dtoa tempTTLpayment, eax
				        output result_str_b, tempTTLpayment


 00000147  B8 00000000		        mov eax, 0                                                  ; make compiler happy 
 0000014C  C3			        ret 
 0000014D			_MainProc ENDP
				END
Microsoft (R) Macro Assembler Version 14.28.29335.0	    10/06/22 22:33:01
assignment4_b.asm					     Symbols 2 - 1




Macros:

                N a m e                 Type

atod . . . . . . . . . . . . . .	Proc
atow . . . . . . . . . . . . . .	Proc
dtoa . . . . . . . . . . . . . .	Proc
input  . . . . . . . . . . . . .	Proc
output . . . . . . . . . . . . .	Proc
wtoa . . . . . . . . . . . . . .	Proc


Segments and Groups:

                N a m e                 Size     Length   Align   Combine Class

FLAT . . . . . . . . . . . . . .	GROUP
STACK  . . . . . . . . . . . . .	32 Bit	 00001000 Para	  Stack	  'STACK'	 
_DATA  . . . . . . . . . . . . .	32 Bit	 0000010F Para	  Public  'DATA'	
_TEXT  . . . . . . . . . . . . .	32 Bit	 0000014D Para	  Public  'CODE'	


Procedures, parameters, and locals:

                N a m e                 Type     Value    Attr

_MainProc  . . . . . . . . . . .	P Near	 00000000 _TEXT	Length= 0000014D Public


Symbols:

                N a m e                 Type     Value    Attr

@CodeSize  . . . . . . . . . . .	Number	 00000000h   
@DataSize  . . . . . . . . . . .	Number	 00000000h   
@Interface . . . . . . . . . . .	Number	 00000000h   
@Model . . . . . . . . . . . . .	Number	 00000007h   
@code  . . . . . . . . . . . . .	Text   	 _TEXT
@data  . . . . . . . . . . . . .	Text   	 FLAT
@fardata?  . . . . . . . . . . .	Text   	 FLAT
@fardata . . . . . . . . . . . .	Text   	 FLAT
@stack . . . . . . . . . . . . .	Text   	 FLAT
Cable  . . . . . . . . . . . . .	DWord	 00000097 _DATA	
Phone  . . . . . . . . . . . . .	DWord	 00000093 _DATA	
Rent . . . . . . . . . . . . . .	DWord	 0000008B _DATA	
Utilities  . . . . . . . . . . .	DWord	 0000008F _DATA	
_getInput  . . . . . . . . . . .	L Near	 00000000 FLAT	External
_showOutput  . . . . . . . . . .	L Near	 00000000 FLAT	External
atodproc . . . . . . . . . . . .	L Near	 00000000 FLAT	External
atowproc . . . . . . . . . . . .	L Near	 00000000 FLAT	External
dtoaproc . . . . . . . . . . . .	L Near	 00000000 FLAT	External
months_ina_year  . . . . . . . .	DWord	 0000009B _DATA	
prompt_a . . . . . . . . . . . .	Byte	 00000000 _DATA	
prompt_b . . . . . . . . . . . .	Byte	 00000021 _DATA	
prompt_c . . . . . . . . . . . .	Byte	 00000047 _DATA	
prompt_d . . . . . . . . . . . .	Byte	 00000069 _DATA	
result_str_a . . . . . . . . . .	Byte	 000000C7 _DATA	
result_str_b . . . . . . . . . .	Byte	 000000E6 _DATA	
string . . . . . . . . . . . . .	Byte	 0000009F _DATA	
tempTTLpayment . . . . . . . . .	Byte	 00000104 _DATA	
wtoaproc . . . . . . . . . . . .	L Near	 00000000 FLAT	External

	   0 Warnings
	   0 Errors
